; ModuleID = '57/149.c'
source_filename = "57/149.c"
target datalayout = "e-m:e-p270:32:32-p271:32:32-p272:64:64-i64:64-f80:128-n8:16:32:64-S128"
target triple = "x86_64-pc-linux-gnu"

@.str = private unnamed_addr constant [3 x i8] c"%d\00", align 1
@.str.1 = private unnamed_addr constant [3 x i8] c"%s\00", align 1
@.str.2 = private unnamed_addr constant [4 x i8] c"%s\0A\00", align 1

; Function Attrs: noinline nounwind uwtable
define dso_local void @main() #0 {
  %1 = alloca [50 x [10 x i8]], align 16
  %2 = alloca i32, align 4
  %3 = alloca i32, align 4
  %4 = alloca i32, align 4
  %5 = bitcast [50 x [10 x i8]]* %1 to i8*
  call void @llvm.memset.p0i8.i64(i8* align 16 %5, i8 0, i64 500, i1 false)
  %6 = call i32 (i8*, ...) @__isoc99_scanf(i8* getelementptr inbounds ([3 x i8], [3 x i8]* @.str, i64 0, i64 0), i32* %3)
  store i32 0, i32* %2, align 4
  br label %7

7:                                                ; preds = %17, %0
  %8 = load i32, i32* %2, align 4
  %9 = load i32, i32* %3, align 4
  %10 = icmp slt i32 %8, %9
  br i1 %10, label %11, label %20

11:                                               ; preds = %7
  %12 = load i32, i32* %2, align 4
  %13 = sext i32 %12 to i64
  %14 = getelementptr inbounds [50 x [10 x i8]], [50 x [10 x i8]]* %1, i64 0, i64 %13
  %15 = getelementptr inbounds [10 x i8], [10 x i8]* %14, i64 0, i64 0
  %16 = call i32 (i8*, ...) @__isoc99_scanf(i8* getelementptr inbounds ([3 x i8], [3 x i8]* @.str.1, i64 0, i64 0), i8* %15)
  br label %17

17:                                               ; preds = %11
  %18 = load i32, i32* %2, align 4
  %19 = add nsw i32 %18, 1
  store i32 %19, i32* %2, align 4
  br label %7

20:                                               ; preds = %7
  store i32 0, i32* %2, align 4
  br label %21

21:                                               ; preds = %134, %20
  %22 = load i32, i32* %2, align 4
  %23 = load i32, i32* %3, align 4
  %24 = icmp slt i32 %22, %23
  br i1 %24, label %25, label %137

25:                                               ; preds = %21
  %26 = load i32, i32* %2, align 4
  %27 = sext i32 %26 to i64
  %28 = getelementptr inbounds [50 x [10 x i8]], [50 x [10 x i8]]* %1, i64 0, i64 %27
  %29 = getelementptr inbounds [10 x i8], [10 x i8]* %28, i64 0, i64 0
  %30 = call i64 @strlen(i8* %29) #4
  %31 = trunc i64 %30 to i32
  store i32 %31, i32* %4, align 4
  %32 = load i32, i32* %2, align 4
  %33 = sext i32 %32 to i64
  %34 = getelementptr inbounds [50 x [10 x i8]], [50 x [10 x i8]]* %1, i64 0, i64 %33
  %35 = load i32, i32* %4, align 4
  %36 = sub nsw i32 %35, 2
  %37 = sext i32 %36 to i64
  %38 = getelementptr inbounds [10 x i8], [10 x i8]* %34, i64 0, i64 %37
  %39 = load i8, i8* %38, align 1
  %40 = sext i8 %39 to i32
  %41 = icmp eq i32 %40, 101
  br i1 %41, label %42, label %62

42:                                               ; preds = %25
  %43 = load i32, i32* %2, align 4
  %44 = sext i32 %43 to i64
  %45 = getelementptr inbounds [50 x [10 x i8]], [50 x [10 x i8]]* %1, i64 0, i64 %44
  %46 = load i32, i32* %4, align 4
  %47 = sub nsw i32 %46, 2
  %48 = sext i32 %47 to i64
  %49 = getelementptr inbounds [10 x i8], [10 x i8]* %45, i64 0, i64 %48
  store i8 0, i8* %49, align 1
  %50 = load i32, i32* %2, align 4
  %51 = sext i32 %50 to i64
  %52 = getelementptr inbounds [50 x [10 x i8]], [50 x [10 x i8]]* %1, i64 0, i64 %51
  %53 = load i32, i32* %4, align 4
  %54 = sub nsw i32 %53, 1
  %55 = sext i32 %54 to i64
  %56 = getelementptr inbounds [10 x i8], [10 x i8]* %52, i64 0, i64 %55
  store i8 0, i8* %56, align 1
  %57 = load i32, i32* %2, align 4
  %58 = sext i32 %57 to i64
  %59 = getelementptr inbounds [50 x [10 x i8]], [50 x [10 x i8]]* %1, i64 0, i64 %58
  %60 = getelementptr inbounds [10 x i8], [10 x i8]* %59, i64 0, i64 0
  %61 = call i32 (i8*, ...) @printf(i8* getelementptr inbounds ([4 x i8], [4 x i8]* @.str.2, i64 0, i64 0), i8* %60)
  br label %133

62:                                               ; preds = %25
  %63 = load i32, i32* %2, align 4
  %64 = sext i32 %63 to i64
  %65 = getelementptr inbounds [50 x [10 x i8]], [50 x [10 x i8]]* %1, i64 0, i64 %64
  %66 = load i32, i32* %4, align 4
  %67 = sub nsw i32 %66, 2
  %68 = sext i32 %67 to i64
  %69 = getelementptr inbounds [10 x i8], [10 x i8]* %65, i64 0, i64 %68
  %70 = load i8, i8* %69, align 1
  %71 = sext i8 %70 to i32
  %72 = icmp eq i32 %71, 108
  br i1 %72, label %73, label %93

73:                                               ; preds = %62
  %74 = load i32, i32* %2, align 4
  %75 = sext i32 %74 to i64
  %76 = getelementptr inbounds [50 x [10 x i8]], [50 x [10 x i8]]* %1, i64 0, i64 %75
  %77 = load i32, i32* %4, align 4
  %78 = sub nsw i32 %77, 2
  %79 = sext i32 %78 to i64
  %80 = getelementptr inbounds [10 x i8], [10 x i8]* %76, i64 0, i64 %79
  store i8 0, i8* %80, align 1
  %81 = load i32, i32* %2, align 4
  %82 = sext i32 %81 to i64
  %83 = getelementptr inbounds [50 x [10 x i8]], [50 x [10 x i8]]* %1, i64 0, i64 %82
  %84 = load i32, i32* %4, align 4
  %85 = sub nsw i32 %84, 1
  %86 = sext i32 %85 to i64
  %87 = getelementptr inbounds [10 x i8], [10 x i8]* %83, i64 0, i64 %86
  store i8 0, i8* %87, align 1
  %88 = load i32, i32* %2, align 4
  %89 = sext i32 %88 to i64
  %90 = getelementptr inbounds [50 x [10 x i8]], [50 x [10 x i8]]* %1, i64 0, i64 %89
  %91 = getelementptr inbounds [10 x i8], [10 x i8]* %90, i64 0, i64 0
  %92 = call i32 (i8*, ...) @printf(i8* getelementptr inbounds ([4 x i8], [4 x i8]* @.str.2, i64 0, i64 0), i8* %91)
  br label %132

93:                                               ; preds = %62
  %94 = load i32, i32* %2, align 4
  %95 = sext i32 %94 to i64
  %96 = getelementptr inbounds [50 x [10 x i8]], [50 x [10 x i8]]* %1, i64 0, i64 %95
  %97 = load i32, i32* %4, align 4
  %98 = sub nsw i32 %97, 3
  %99 = sext i32 %98 to i64
  %100 = getelementptr inbounds [10 x i8], [10 x i8]* %96, i64 0, i64 %99
  %101 = load i8, i8* %100, align 1
  %102 = sext i8 %101 to i32
  %103 = icmp eq i32 %102, 105
  br i1 %103, label %104, label %131

104:                                              ; preds = %93
  %105 = load i32, i32* %2, align 4
  %106 = sext i32 %105 to i64
  %107 = getelementptr inbounds [50 x [10 x i8]], [50 x [10 x i8]]* %1, i64 0, i64 %106
  %108 = load i32, i32* %4, align 4
  %109 = sub nsw i32 %108, 3
  %110 = sext i32 %109 to i64
  %111 = getelementptr inbounds [10 x i8], [10 x i8]* %107, i64 0, i64 %110
  store i8 0, i8* %111, align 1
  %112 = load i32, i32* %2, align 4
  %113 = sext i32 %112 to i64
  %114 = getelementptr inbounds [50 x [10 x i8]], [50 x [10 x i8]]* %1, i64 0, i64 %113
  %115 = load i32, i32* %4, align 4
  %116 = sub nsw i32 %115, 2
  %117 = sext i32 %116 to i64
  %118 = getelementptr inbounds [10 x i8], [10 x i8]* %114, i64 0, i64 %117
  store i8 0, i8* %118, align 1
  %119 = load i32, i32* %2, align 4
  %120 = sext i32 %119 to i64
  %121 = getelementptr inbounds [50 x [10 x i8]], [50 x [10 x i8]]* %1, i64 0, i64 %120
  %122 = load i32, i32* %4, align 4
  %123 = sub nsw i32 %122, 1
  %124 = sext i32 %123 to i64
  %125 = getelementptr inbounds [10 x i8], [10 x i8]* %121, i64 0, i64 %124
  store i8 0, i8* %125, align 1
  %126 = load i32, i32* %2, align 4
  %127 = sext i32 %126 to i64
  %128 = getelementptr inbounds [50 x [10 x i8]], [50 x [10 x i8]]* %1, i64 0, i64 %127
  %129 = getelementptr inbounds [10 x i8], [10 x i8]* %128, i64 0, i64 0
  %130 = call i32 (i8*, ...) @printf(i8* getelementptr inbounds ([4 x i8], [4 x i8]* @.str.2, i64 0, i64 0), i8* %129)
  br label %131

131:                                              ; preds = %104, %93
  br label %132

132:                                              ; preds = %131, %73
  br label %133

133:                                              ; preds = %132, %42
  br label %134

134:                                              ; preds = %133
  %135 = load i32, i32* %2, align 4
  %136 = add nsw i32 %135, 1
  store i32 %136, i32* %2, align 4
  br label %21

137:                                              ; preds = %21
  ret void
}

; Function Attrs: argmemonly nounwind willreturn
declare void @llvm.memset.p0i8.i64(i8* nocapture writeonly, i8, i64, i1 immarg) #1

declare dso_local i32 @__isoc99_scanf(i8*, ...) #2

; Function Attrs: nounwind readonly
declare dso_local i64 @strlen(i8*) #3

declare dso_local i32 @printf(i8*, ...) #2


!llvm.module.flags = !{!0}
!llvm.ident = !{!1}

!0 = !{i32 1, !"wchar_size", i32 4}
!1 = !{!"clang version 10.0.0-4ubuntu1 "}
